; Function Attrs: mustprogress nounwind uwtable
define internal void @"_ZZZN4node7tracing15NodeTraceWriter12ExitSignalCbEP10uv_async_sENK3$_0clEP11uv_handle_sENUlS6_E_8__invokeES6_"(ptr noundef %signal) #0 align 2 {
entry:
  %0 = ptrtoint ptr %signal to i64
  %sub.i.i.i = add i64 %0, -144
  %1 = inttoptr i64 %sub.i.i.i to ptr
  %request_mutex_.i = getelementptr inbounds i8, ptr %1, i64 312
  tail call void @uv_mutex_lock(ptr noundef nonnull %request_mutex_.i) #12
  %exited_.i = getelementptr inbounds i8, ptr %1, i64 1408
  store i8 1, ptr %exited_.i, align 8
  %exit_cond_.i = getelementptr inbounds i8, ptr %1, i64 400
  tail call void @uv_cond_signal(ptr noundef nonnull %exit_cond_.i) #12
  tail call void @uv_mutex_unlock(ptr noundef nonnull %request_mutex_.i) #12
  ret void
}